target datalayout = "e-m:e-p270:32:32-p271:32:32-p272:64:64-i64:64-i128:128-f80:128-n8:16:32:64-S128"
target triple = "x86_64-pc-linux-gnu"

%struct.lxb_html_parser_t = type { ptr, ptr, ptr, ptr, ptr, i32, i32, i64 }
%struct.lxb_html_tree = type { ptr, ptr, ptr, ptr, ptr, ptr, ptr, %struct.lxb_html_tree_pending_table_t, ptr, i8, i8, i8, i8, i8, i8, ptr, ptr, ptr, i32, i64 }
%struct.lxb_html_tree_pending_table_t = type { ptr, i8 }
%struct.lxb_dom_node = type { %struct.lxb_dom_event_target, i64, i64, i64, ptr, ptr, ptr, ptr, ptr, ptr, ptr, i32, i64 }
%struct.lxb_dom_event_target = type { ptr }
%struct.lxb_html_element = type { %struct.lxb_dom_element, ptr, ptr }
%struct.lxb_dom_element = type { %struct.lxb_dom_node, i64, i64, ptr, ptr, ptr, ptr, ptr, i32 }

; Function Attrs: nounwind uwtable
define hidden ptr @lxb_html_parse_fragment_by_tag_id(ptr noundef %0, ptr noundef %1, i64 noundef %2, i64 noundef %3, ptr noundef %4, i64 noundef %5) #0 {
  %7 = alloca ptr, align 8
  %8 = alloca ptr, align 8
  %9 = alloca ptr, align 8
  %10 = alloca i64, align 8
  %11 = alloca i64, align 8
  %12 = alloca ptr, align 8
  %13 = alloca i64, align 8
  store ptr %0, ptr %8, align 8
  store ptr %1, ptr %9, align 8
  store i64 %2, ptr %10, align 8
  store i64 %3, ptr %11, align 8
  store ptr %4, ptr %12, align 8
  store i64 %5, ptr %13, align 8
  %14 = load ptr, ptr %8, align 8
  %15 = load ptr, ptr %9, align 8
  %16 = load i64, ptr %10, align 8
  %17 = load i64, ptr %11, align 8
  %18 = call i32 @lxb_html_parse_fragment_chunk_begin(ptr noundef %14, ptr noundef %15, i64 noundef %16, i64 noundef %17)
  %19 = load ptr, ptr %8, align 8
  %20 = getelementptr inbounds %struct.lxb_html_parser_t, ptr %19, i32 0, i32 6
  %21 = load i32, ptr %20, align 4
  %22 = icmp ne i32 %21, 0
  br i1 %22, label %23, label %24

23:                                               ; preds = %6
  store ptr null, ptr %7, align 8
  br label %37

24:                                               ; preds = %6
  %25 = load ptr, ptr %8, align 8
  %26 = load ptr, ptr %12, align 8
  %27 = load i64, ptr %13, align 8
  %28 = call i32 @lxb_html_parse_fragment_chunk_process(ptr noundef %25, ptr noundef %26, i64 noundef %27)
  %29 = load ptr, ptr %8, align 8
  %30 = getelementptr inbounds %struct.lxb_html_parser_t, ptr %29, i32 0, i32 6
  %31 = load i32, ptr %30, align 4
  %32 = icmp ne i32 %31, 0
  br i1 %32, label %33, label %34

33:                                               ; preds = %24
  store ptr null, ptr %7, align 8
  br label %37

34:                                               ; preds = %24
  %35 = load ptr, ptr %8, align 8
  %36 = call ptr @lxb_html_parse_fragment_chunk_end(ptr noundef %35)
  store ptr %36, ptr %7, align 8
  br label %37

37:                                               ; preds = %34, %33, %23
  %38 = load ptr, ptr %7, align 8
  ret ptr %38
}

; Function Attrs: nounwind uwtable
define hidden ptr @lxb_html_parse_fragment(ptr noundef %0, ptr noundef %1, ptr noundef %2, i64 noundef %3) #0 {
  %5 = alloca ptr, align 8
  %6 = alloca ptr, align 8
  %7 = alloca ptr, align 8
  %8 = alloca i64, align 8
  store ptr %0, ptr %5, align 8
  store ptr %1, ptr %6, align 8
  store ptr %2, ptr %7, align 8
  store i64 %3, ptr %8, align 8
  %9 = load ptr, ptr %5, align 8
  %10 = load ptr, ptr %5, align 8
  %11 = getelementptr inbounds %struct.lxb_html_parser_t, ptr %10, i32 0, i32 1
  %12 = load ptr, ptr %11, align 8
  %13 = getelementptr inbounds %struct.lxb_html_tree, ptr %12, i32 0, i32 1
  %14 = load ptr, ptr %13, align 8
  %15 = load ptr, ptr %6, align 8
  %16 = getelementptr inbounds %struct.lxb_html_element, ptr %15, i32 0, i32 0
  %17 = getelementptr inbounds %struct.lxb_dom_element, ptr %16, i32 0, i32 0
  %18 = getelementptr inbounds %struct.lxb_dom_node, ptr %17, i32 0, i32 1
  %19 = load i64, ptr %18, align 8
  %20 = load ptr, ptr %6, align 8
  %21 = getelementptr inbounds %struct.lxb_html_element, ptr %20, i32 0, i32 0
  %22 = getelementptr inbounds %struct.lxb_dom_element, ptr %21, i32 0, i32 0
  %23 = getelementptr inbounds %struct.lxb_dom_node, ptr %22, i32 0, i32 3
  %24 = load i64, ptr %23, align 8
  %25 = load ptr, ptr %7, align 8
  %26 = load i64, ptr %8, align 8
  %27 = call ptr @lxb_html_parse_fragment_by_tag_id(ptr noundef %9, ptr noundef %14, i64 noundef %19, i64 noundef %24, ptr noundef %25, i64 noundef %26)
  ret ptr %27
}