; Function Attrs: nounwind uwtable
define hidden ptr @lxb_html_parse_fragment(ptr nocapture noundef %0, ptr nocapture noundef readonly %1, ptr noundef %2, i64 noundef %3) local_unnamed_addr #0 {
  %5 = getelementptr inbounds i8, ptr %0, i64 8
  %6 = load ptr, ptr %5, align 8
  %7 = getelementptr inbounds i8, ptr %6, i64 8
  %8 = load ptr, ptr %7, align 8
  %9 = getelementptr inbounds i8, ptr %1, i64 8
  %10 = load i64, ptr %9, align 8
  %11 = getelementptr inbounds i8, ptr %1, i64 24
  %12 = load i64, ptr %11, align 8
  %13 = tail call i32 @lxb_html_parse_fragment_chunk_begin(ptr noundef %0, ptr noundef %8, i64 noundef %10, i64 noundef %12)
  %14 = getelementptr inbounds i8, ptr %0, i64 44
  %15 = load i32, ptr %14, align 4
  %.not.i = icmp eq i32 %15, 0
  br i1 %.not.i, label %16, label %lxb_html_parse_fragment_by_tag_id.exit

16:                                               ; preds = %4
  %17 = tail call i32 @lxb_html_parse_fragment_chunk_process(ptr noundef nonnull %0, ptr noundef %2, i64 noundef %3)
  %18 = load i32, ptr %14, align 4
  %.not10.i = icmp eq i32 %18, 0
  br i1 %.not10.i, label %19, label %lxb_html_parse_fragment_by_tag_id.exit

19:                                               ; preds = %16
  %20 = tail call ptr @lxb_html_parse_fragment_chunk_end(ptr noundef nonnull %0)
  br label %lxb_html_parse_fragment_by_tag_id.exit

lxb_html_parse_fragment_by_tag_id.exit:           ; preds = %4, %16, %19
  %.0.i = phi ptr [ %20, %19 ], [ null, %4 ], [ null, %16 ]
  ret ptr %.0.i
}